target datalayout = "e-m:e-p270:32:32-p271:32:32-p272:64:64-i64:64-i128:128-f80:128-n8:16:32:64-S128"
target triple = "x86_64-pc-linux-gnu"

; Function Attrs: nounwind uwtable
define i32 @us_micr_is_valid(ptr noundef %0, i64 noundef %1) #0 {
  %3 = alloca i32, align 4
  %4 = alloca ptr, align 8
  %5 = alloca i64, align 8
  %6 = alloca i32, align 4
  %7 = alloca i32, align 4
  %8 = alloca i32, align 4
  %9 = alloca i32, align 4
  %10 = alloca i32, align 4
  %11 = alloca i32, align 4
  %12 = alloca [9 x i8], align 1
  store ptr %0, ptr %4, align 8
  store i64 %1, ptr %5, align 8
  %13 = load ptr, ptr %4, align 8
  %14 = icmp eq ptr %13, null
  br i1 %14, label %18, label %15

15:                                               ; preds = %2
  %16 = load i64, ptr %5, align 8
  %17 = icmp ult i64 %16, 9
  br i1 %17, label %18, label %19

18:                                               ; preds = %15, %2
  store i32 0, ptr %3, align 4
  br label %107

19:                                               ; preds = %15
  store i32 0, ptr %11, align 4
  br label %20

20:                                               ; preds = %48, %19
  %21 = load i32, ptr %11, align 4
  %22 = icmp slt i32 %21, 9
  br i1 %22, label %23, label %51

23:                                               ; preds = %20
  %24 = call ptr @__ctype_b_loc() #5
  %25 = load ptr, ptr %24, align 8
  %26 = load ptr, ptr %4, align 8
  %27 = load i32, ptr %11, align 4
  %28 = sext i32 %27 to i64
  %29 = getelementptr inbounds i8, ptr %26, i64 %28
  %30 = load i8, ptr %29, align 1
  %31 = sext i8 %30 to i32
  %32 = sext i32 %31 to i64
  %33 = getelementptr inbounds i16, ptr %25, i64 %32
  %34 = load i16, ptr %33, align 2
  %35 = zext i16 %34 to i32
  %36 = and i32 %35, 2048
  %37 = icmp eq i32 %36, 0
  br i1 %37, label %38, label %39

38:                                               ; preds = %23
  store i32 0, ptr %3, align 4
  br label %107

39:                                               ; preds = %23
  %40 = load ptr, ptr %4, align 8
  %41 = load i32, ptr %11, align 4
  %42 = sext i32 %41 to i64
  %43 = getelementptr inbounds i8, ptr %40, i64 %42
  %44 = load i8, ptr %43, align 1
  %45 = load i32, ptr %11, align 4
  %46 = sext i32 %45 to i64
  %47 = getelementptr inbounds [9 x i8], ptr %12, i64 0, i64 %46
  store i8 %44, ptr %47, align 1
  br label %48

48:                                               ; preds = %39
  %49 = load i32, ptr %11, align 4
  %50 = add nsw i32 %49, 1
  store i32 %50, ptr %11, align 4
  br label %20

51:                                               ; preds = %20
  %52 = getelementptr inbounds [9 x i8], ptr %12, i64 0, i64 0
  %53 = load i8, ptr %52, align 1
  %54 = zext i8 %53 to i32
  %55 = sub nsw i32 %54, 48
  %56 = getelementptr inbounds [9 x i8], ptr %12, i64 0, i64 3
  %57 = load i8, ptr %56, align 1
  %58 = zext i8 %57 to i32
  %59 = sub nsw i32 %58, 48
  %60 = add nsw i32 %55, %59
  %61 = getelementptr inbounds [9 x i8], ptr %12, i64 0, i64 6
  %62 = load i8, ptr %61, align 1
  %63 = zext i8 %62 to i32
  %64 = sub nsw i32 %63, 48
  %65 = add nsw i32 %60, %64
  %66 = mul nsw i32 7, %65
  store i32 %66, ptr %8, align 4
  %67 = getelementptr inbounds [9 x i8], ptr %12, i64 0, i64 1
  %68 = load i8, ptr %67, align 1
  %69 = zext i8 %68 to i32
  %70 = sub nsw i32 %69, 48
  %71 = getelementptr inbounds [9 x i8], ptr %12, i64 0, i64 4
  %72 = load i8, ptr %71, align 1
  %73 = zext i8 %72 to i32
  %74 = sub nsw i32 %73, 48
  %75 = add nsw i32 %70, %74
  %76 = getelementptr inbounds [9 x i8], ptr %12, i64 0, i64 7
  %77 = load i8, ptr %76, align 1
  %78 = zext i8 %77 to i32
  %79 = sub nsw i32 %78, 48
  %80 = add nsw i32 %75, %79
  %81 = mul nsw i32 3, %80
  store i32 %81, ptr %9, align 4
  %82 = getelementptr inbounds [9 x i8], ptr %12, i64 0, i64 2
  %83 = load i8, ptr %82, align 1
  %84 = zext i8 %83 to i32
  %85 = sub nsw i32 %84, 48
  %86 = getelementptr inbounds [9 x i8], ptr %12, i64 0, i64 5
  %87 = load i8, ptr %86, align 1
  %88 = zext i8 %87 to i32
  %89 = sub nsw i32 %88, 48
  %90 = add nsw i32 %85, %89
  %91 = mul nsw i32 9, %90
  store i32 %91, ptr %10, align 4
  %92 = load i32, ptr %8, align 4
  %93 = load i32, ptr %9, align 4
  %94 = add nsw i32 %92, %93
  %95 = load i32, ptr %10, align 4
  %96 = add nsw i32 %94, %95
  store i32 %96, ptr %7, align 4
  %97 = load i32, ptr %7, align 4
  %98 = srem i32 %97, 10
  store i32 %98, ptr %6, align 4
  %99 = load i32, ptr %6, align 4
  %100 = getelementptr inbounds [9 x i8], ptr %12, i64 0, i64 8
  %101 = load i8, ptr %100, align 1
  %102 = zext i8 %101 to i32
  %103 = sub nsw i32 %102, 48
  %104 = icmp eq i32 %99, %103
  br i1 %104, label %105, label %106

105:                                              ; preds = %51
  store i32 1, ptr %3, align 4
  br label %107

106:                                              ; preds = %51
  store i32 0, ptr %3, align 4
  br label %107

107:                                              ; preds = %106, %105, %38, %18
  %108 = load i32, ptr %3, align 4
  ret i32 %108
}