; Function Attrs: nofree nosync nounwind memory(read, inaccessiblemem: none) uwtable
define range(i32 0, 2) i32 @us_micr_is_valid(ptr noundef readonly %0, i64 noundef %1) local_unnamed_addr #6 {
  %3 = alloca [9 x i8], align 1
  %4 = icmp eq ptr %0, null
  %5 = icmp ult i64 %1, 9
  %or.cond = or i1 %4, %5
  br i1 %or.cond, label %.loopexit, label %.preheader

.preheader:                                       ; preds = %2
  %6 = tail call ptr @__ctype_b_loc() #9
  %7 = load ptr, ptr %6, align 8
  br label %8

8:                                                ; preds = %.preheader, %16
  %indvars.iv = phi i64 [ 0, %.preheader ], [ %indvars.iv.next, %16 ]
  %9 = getelementptr inbounds nuw i8, ptr %0, i64 %indvars.iv
  %10 = load i8, ptr %9, align 1
  %11 = sext i8 %10 to i64
  %12 = getelementptr inbounds i16, ptr %7, i64 %11
  %13 = load i16, ptr %12, align 2
  %14 = and i16 %13, 2048
  %15 = icmp eq i16 %14, 0
  br i1 %15, label %.loopexit, label %16

16:                                               ; preds = %8
  %17 = getelementptr inbounds nuw [9 x i8], ptr %3, i64 0, i64 %indvars.iv
  store i8 %10, ptr %17, align 1
  %indvars.iv.next = add nuw nsw i64 %indvars.iv, 1
  %exitcond.not = icmp eq i64 %indvars.iv.next, 9
  br i1 %exitcond.not, label %18, label %8

18:                                               ; preds = %16
  %19 = load i8, ptr %3, align 1
  %20 = zext i8 %19 to i16
  %21 = getelementptr inbounds nuw i8, ptr %3, i64 3
  %22 = load i8, ptr %21, align 1
  %23 = zext i8 %22 to i16
  %24 = add nuw nsw i16 %23, %20
  %25 = getelementptr inbounds nuw i8, ptr %3, i64 6
  %26 = load i8, ptr %25, align 1
  %27 = zext i8 %26 to i16
  %28 = add nuw nsw i16 %24, %27
  %29 = mul nuw nsw i16 %28, 7
  %30 = getelementptr inbounds nuw i8, ptr %3, i64 1
  %31 = load i8, ptr %30, align 1
  %32 = zext i8 %31 to i16
  %33 = getelementptr inbounds nuw i8, ptr %3, i64 4
  %34 = load i8, ptr %33, align 1
  %35 = zext i8 %34 to i16
  %36 = add nuw nsw i16 %35, %32
  %37 = getelementptr inbounds nuw i8, ptr %3, i64 7
  %38 = load i8, ptr %37, align 1
  %39 = zext i8 %38 to i16
  %40 = add nuw nsw i16 %36, %39
  %41 = mul nuw nsw i16 %40, 3
  %42 = getelementptr inbounds nuw i8, ptr %3, i64 2
  %43 = load i8, ptr %42, align 1
  %44 = zext i8 %43 to i16
  %45 = getelementptr inbounds nuw i8, ptr %3, i64 5
  %46 = load i8, ptr %45, align 1
  %47 = zext i8 %46 to i16
  %48 = add nuw nsw i16 %47, %44
  %49 = mul nuw nsw i16 %48, 9
  %50 = add nsw i16 %29, -2304
  %51 = add nsw i16 %50, %41
  %.lhs.trunc = add nsw i16 %51, %49
  %52 = srem i16 %.lhs.trunc, 10
  %.sext = sext i16 %52 to i32
  %53 = getelementptr inbounds nuw i8, ptr %3, i64 8
  %54 = load i8, ptr %53, align 1
  %55 = zext i8 %54 to i32
  %56 = add nsw i32 %55, -48
  %57 = icmp eq i32 %56, %.sext
  %. = zext i1 %57 to i32
  br label %.loopexit

.loopexit:                                        ; preds = %8, %18, %2
  %.015 = phi i32 [ 0, %2 ], [ %., %18 ], [ 0, %8 ]
  ret i32 %.015
}